; Function Attrs: mustprogress uwtable
define void @_ZNK4YAML6Stream13StreamInUtf32Ev(ptr noundef nonnull align 8 dereferenceable(136) %0) local_unnamed_addr #0 align 2 {
  %2 = alloca [4 x i8], align 1
  call void @llvm.lifetime.start.p0(i64 4, ptr nonnull %2) #16
  %3 = getelementptr inbounds nuw i8, ptr %0, i64 20
  %4 = load i32, ptr %3, align 4, !tbaa !44
  %5 = icmp eq i32 %4, 4
  %._ZZNK4YAML6Stream13StreamInUtf32EvE7indexes = select i1 %5, ptr getelementptr inbounds nuw (i8, ptr @_ZZNK4YAML6Stream13StreamInUtf32EvE7indexes, i64 16), ptr @_ZZNK4YAML6Stream13StreamInUtf32EvE7indexes
  %6 = getelementptr inbounds nuw i8, ptr %0, i64 128
  %7 = load i64, ptr %6, align 8, !tbaa !83
  %8 = getelementptr inbounds nuw i8, ptr %0, i64 120
  %9 = load i64, ptr %8, align 8, !tbaa !84
  %.not.i = icmp ult i64 %7, %9
  br i1 %.not.i, label %_ZNK4YAML6Stream11GetNextByteEv.exit, label %10

10:                                               ; preds = %1
  %11 = load ptr, ptr %0, align 8, !tbaa !57
  %12 = load ptr, ptr %11, align 8, !tbaa !22
  %13 = getelementptr i8, ptr %12, i64 -24
  %14 = load i64, ptr %13, align 8
  %15 = getelementptr inbounds i8, ptr %11, i64 %14
  %16 = getelementptr inbounds nuw i8, ptr %15, i64 232
  %17 = load ptr, ptr %16, align 8, !tbaa !85
  %18 = getelementptr inbounds nuw i8, ptr %0, i64 112
  %19 = load ptr, ptr %18, align 8, !tbaa !8
  %20 = load ptr, ptr %17, align 8, !tbaa !22
  %21 = getelementptr inbounds nuw i8, ptr %20, i64 64
  %22 = load ptr, ptr %21, align 8
  %23 = tail call noundef i64 %22(ptr noundef nonnull align 8 dereferenceable(64) %17, ptr noundef %19, i64 noundef 2048)
  store i64 %23, ptr %8, align 8, !tbaa !84
  store i64 0, ptr %6, align 8, !tbaa !83
  %.not4.i = icmp eq i64 %23, 0
  br i1 %.not4.i, label %24, label %_ZNK4YAML6Stream11GetNextByteEv.exit

24:                                               ; preds = %10
  %25 = load ptr, ptr %0, align 8, !tbaa !57
  %26 = load ptr, ptr %25, align 8, !tbaa !22
  %27 = getelementptr i8, ptr %26, i64 -24
  %28 = load i64, ptr %27, align 8
  %29 = getelementptr inbounds i8, ptr %25, i64 %28
  %30 = getelementptr inbounds nuw i8, ptr %29, i64 32
  %31 = load i32, ptr %30, align 8, !tbaa !24
  %32 = or i32 %31, 2
  tail call void @_ZNSt9basic_iosIcSt11char_traitsIcEE5clearESt12_Ios_Iostate(ptr noundef nonnull align 8 dereferenceable(264) %29, i32 noundef %32)
  %.pre.i = load i64, ptr %8, align 8, !tbaa !84
  %33 = icmp eq i64 %.pre.i, 0
  %.pre = load i64, ptr %6, align 8, !tbaa !83
  br i1 %33, label %_ZNK4YAML6Stream11GetNextByteEv.exit.thread, label %_ZNK4YAML6Stream11GetNextByteEv.exit

_ZNK4YAML6Stream11GetNextByteEv.exit.thread:      ; preds = %24
  store i8 0, ptr %2, align 1, !tbaa !36
  br label %41

_ZNK4YAML6Stream11GetNextByteEv.exit:             ; preds = %1, %24, %10
  %34 = phi i64 [ %9, %1 ], [ %23, %10 ], [ %.pre.i, %24 ]
  %35 = phi i64 [ %7, %1 ], [ 0, %10 ], [ %.pre, %24 ]
  %36 = getelementptr inbounds nuw i8, ptr %0, i64 112
  %37 = load ptr, ptr %36, align 8, !tbaa !8
  %38 = add i64 %35, 1
  store i64 %38, ptr %6, align 8, !tbaa !83
  %39 = getelementptr inbounds nuw i8, ptr %37, i64 %35
  %40 = load i8, ptr %39, align 1, !tbaa !36
  store i8 %40, ptr %2, align 1, !tbaa !36
  %.not.i8 = icmp ult i64 %38, %34
  br i1 %.not.i8, label %_ZNK4YAML6Stream11GetNextByteEv.exit14, label %41

41:                                               ; preds = %_ZNK4YAML6Stream11GetNextByteEv.exit.thread, %_ZNK4YAML6Stream11GetNextByteEv.exit
  %42 = load ptr, ptr %0, align 8, !tbaa !57
  %43 = load ptr, ptr %42, align 8, !tbaa !22
  %44 = getelementptr i8, ptr %43, i64 -24
  %45 = load i64, ptr %44, align 8
  %46 = getelementptr inbounds i8, ptr %42, i64 %45
  %47 = getelementptr inbounds nuw i8, ptr %46, i64 232
  %48 = load ptr, ptr %47, align 8, !tbaa !85
  %49 = getelementptr inbounds nuw i8, ptr %0, i64 112
  %50 = load ptr, ptr %49, align 8, !tbaa !8
  %51 = load ptr, ptr %48, align 8, !tbaa !22
  %52 = getelementptr inbounds nuw i8, ptr %51, i64 64
  %53 = load ptr, ptr %52, align 8
  %54 = tail call noundef i64 %53(ptr noundef nonnull align 8 dereferenceable(64) %48, ptr noundef %50, i64 noundef 2048)
  store i64 %54, ptr %8, align 8, !tbaa !84
  store i64 0, ptr %6, align 8, !tbaa !83
  %.not4.i9 = icmp eq i64 %54, 0
  br i1 %.not4.i9, label %55, label %_ZNK4YAML6Stream11GetNextByteEv.exit14

55:                                               ; preds = %41
  %56 = load ptr, ptr %0, align 8, !tbaa !57
  %57 = load ptr, ptr %56, align 8, !tbaa !22
  %58 = getelementptr i8, ptr %57, i64 -24
  %59 = load i64, ptr %58, align 8
  %60 = getelementptr inbounds i8, ptr %56, i64 %59
  %61 = getelementptr inbounds nuw i8, ptr %60, i64 32
  %62 = load i32, ptr %61, align 8, !tbaa !24
  %63 = or i32 %62, 2
  tail call void @_ZNSt9basic_iosIcSt11char_traitsIcEE5clearESt12_Ios_Iostate(ptr noundef nonnull align 8 dereferenceable(264) %60, i32 noundef %63)
  %.pre.i13 = load i64, ptr %8, align 8, !tbaa !84
  %64 = icmp eq i64 %.pre.i13, 0
  %.pre34 = load i64, ptr %6, align 8, !tbaa !83
  br i1 %64, label %_ZNK4YAML6Stream11GetNextByteEv.exit14.thread, label %_ZNK4YAML6Stream11GetNextByteEv.exit14

_ZNK4YAML6Stream11GetNextByteEv.exit14.thread:    ; preds = %55
  %65 = getelementptr inbounds nuw i8, ptr %2, i64 1
  store i8 0, ptr %65, align 1, !tbaa !36
  br label %74

_ZNK4YAML6Stream11GetNextByteEv.exit14:           ; preds = %_ZNK4YAML6Stream11GetNextByteEv.exit, %55, %41
  %66 = phi i64 [ %34, %_ZNK4YAML6Stream11GetNextByteEv.exit ], [ %54, %41 ], [ %.pre.i13, %55 ]
  %67 = phi i64 [ %38, %_ZNK4YAML6Stream11GetNextByteEv.exit ], [ 0, %41 ], [ %.pre34, %55 ]
  %68 = getelementptr inbounds nuw i8, ptr %0, i64 112
  %69 = load ptr, ptr %68, align 8, !tbaa !8
  %70 = add i64 %67, 1
  store i64 %70, ptr %6, align 8, !tbaa !83
  %71 = getelementptr inbounds nuw i8, ptr %69, i64 %67
  %72 = load i8, ptr %71, align 1, !tbaa !36
  %73 = getelementptr inbounds nuw i8, ptr %2, i64 1
  store i8 %72, ptr %73, align 1, !tbaa !36
  %.not.i15 = icmp ult i64 %70, %66
  br i1 %.not.i15, label %_ZNK4YAML6Stream11GetNextByteEv.exit21, label %74

74:                                               ; preds = %_ZNK4YAML6Stream11GetNextByteEv.exit14.thread, %_ZNK4YAML6Stream11GetNextByteEv.exit14
  %75 = load ptr, ptr %0, align 8, !tbaa !57
  %76 = load ptr, ptr %75, align 8, !tbaa !22
  %77 = getelementptr i8, ptr %76, i64 -24
  %78 = load i64, ptr %77, align 8
  %79 = getelementptr inbounds i8, ptr %75, i64 %78
  %80 = getelementptr inbounds nuw i8, ptr %79, i64 232
  %81 = load ptr, ptr %80, align 8, !tbaa !85
  %82 = getelementptr inbounds nuw i8, ptr %0, i64 112
  %83 = load ptr, ptr %82, align 8, !tbaa !8
  %84 = load ptr, ptr %81, align 8, !tbaa !22
  %85 = getelementptr inbounds nuw i8, ptr %84, i64 64
  %86 = load ptr, ptr %85, align 8
  %87 = tail call noundef i64 %86(ptr noundef nonnull align 8 dereferenceable(64) %81, ptr noundef %83, i64 noundef 2048)
  store i64 %87, ptr %8, align 8, !tbaa !84
  store i64 0, ptr %6, align 8, !tbaa !83
  %.not4.i16 = icmp eq i64 %87, 0
  br i1 %.not4.i16, label %88, label %_ZNK4YAML6Stream11GetNextByteEv.exit21

88:                                               ; preds = %74
  %89 = load ptr, ptr %0, align 8, !tbaa !57
  %90 = load ptr, ptr %89, align 8, !tbaa !22
  %91 = getelementptr i8, ptr %90, i64 -24
  %92 = load i64, ptr %91, align 8
  %93 = getelementptr inbounds i8, ptr %89, i64 %92
  %94 = getelementptr inbounds nuw i8, ptr %93, i64 32
  %95 = load i32, ptr %94, align 8, !tbaa !24
  %96 = or i32 %95, 2
  tail call void @_ZNSt9basic_iosIcSt11char_traitsIcEE5clearESt12_Ios_Iostate(ptr noundef nonnull align 8 dereferenceable(264) %93, i32 noundef %96)
  %.pre.i20 = load i64, ptr %8, align 8, !tbaa !84
  %97 = icmp eq i64 %.pre.i20, 0
  %.pre36 = load i64, ptr %6, align 8, !tbaa !83
  br i1 %97, label %_ZNK4YAML6Stream11GetNextByteEv.exit21.thread, label %_ZNK4YAML6Stream11GetNextByteEv.exit21

_ZNK4YAML6Stream11GetNextByteEv.exit21.thread:    ; preds = %88
  %98 = getelementptr inbounds nuw i8, ptr %2, i64 2
  store i8 0, ptr %98, align 1, !tbaa !36
  br label %107

_ZNK4YAML6Stream11GetNextByteEv.exit21:           ; preds = %_ZNK4YAML6Stream11GetNextByteEv.exit14, %88, %74
  %99 = phi i64 [ %66, %_ZNK4YAML6Stream11GetNextByteEv.exit14 ], [ %87, %74 ], [ %.pre.i20, %88 ]
  %100 = phi i64 [ %70, %_ZNK4YAML6Stream11GetNextByteEv.exit14 ], [ 0, %74 ], [ %.pre36, %88 ]
  %101 = getelementptr inbounds nuw i8, ptr %0, i64 112
  %102 = load ptr, ptr %101, align 8, !tbaa !8
  %103 = add i64 %100, 1
  store i64 %103, ptr %6, align 8, !tbaa !83
  %104 = getelementptr inbounds nuw i8, ptr %102, i64 %100
  %105 = load i8, ptr %104, align 1, !tbaa !36
  %106 = getelementptr inbounds nuw i8, ptr %2, i64 2
  store i8 %105, ptr %106, align 1, !tbaa !36
  %.not.i22 = icmp ult i64 %103, %99
  br i1 %.not.i22, label %._crit_edge.i24, label %107

107:                                              ; preds = %_ZNK4YAML6Stream11GetNextByteEv.exit21.thread, %_ZNK4YAML6Stream11GetNextByteEv.exit21
  %108 = load ptr, ptr %0, align 8, !tbaa !57
  %109 = load ptr, ptr %108, align 8, !tbaa !22
  %110 = getelementptr i8, ptr %109, i64 -24
  %111 = load i64, ptr %110, align 8
  %112 = getelementptr inbounds i8, ptr %108, i64 %111
  %113 = getelementptr inbounds nuw i8, ptr %112, i64 232
  %114 = load ptr, ptr %113, align 8, !tbaa !85
  %115 = getelementptr inbounds nuw i8, ptr %0, i64 112
  %116 = load ptr, ptr %115, align 8, !tbaa !8
  %117 = load ptr, ptr %114, align 8, !tbaa !22
  %118 = getelementptr inbounds nuw i8, ptr %117, i64 64
  %119 = load ptr, ptr %118, align 8
  %120 = tail call noundef i64 %119(ptr noundef nonnull align 8 dereferenceable(64) %114, ptr noundef %116, i64 noundef 2048)
  store i64 %120, ptr %8, align 8, !tbaa !84
  store i64 0, ptr %6, align 8, !tbaa !83
  %.not4.i23 = icmp eq i64 %120, 0
  br i1 %.not4.i23, label %121, label %._crit_edge.i24

121:                                              ; preds = %107
  %122 = load ptr, ptr %0, align 8, !tbaa !57
  %123 = load ptr, ptr %122, align 8, !tbaa !22
  %124 = getelementptr i8, ptr %123, i64 -24
  %125 = load i64, ptr %124, align 8
  %126 = getelementptr inbounds i8, ptr %122, i64 %125
  %127 = getelementptr inbounds nuw i8, ptr %126, i64 32
  %128 = load i32, ptr %127, align 8, !tbaa !24
  %129 = or i32 %128, 2
  tail call void @_ZNSt9basic_iosIcSt11char_traitsIcEE5clearESt12_Ios_Iostate(ptr noundef nonnull align 8 dereferenceable(264) %126, i32 noundef %129)
  %.pre.i27 = load i64, ptr %8, align 8, !tbaa !84
  %130 = icmp eq i64 %.pre.i27, 0
  br i1 %130, label %_ZNK4YAML6Stream11GetNextByteEv.exit28, label %.._crit_edge.i24_crit_edge

.._crit_edge.i24_crit_edge:                       ; preds = %121
  %.pre6.i25.pre = load i64, ptr %6, align 8, !tbaa !83
  br label %._crit_edge.i24

._crit_edge.i24:                                  ; preds = %107, %.._crit_edge.i24_crit_edge, %_ZNK4YAML6Stream11GetNextByteEv.exit21
  %131 = phi i64 [ %103, %_ZNK4YAML6Stream11GetNextByteEv.exit21 ], [ %.pre6.i25.pre, %.._crit_edge.i24_crit_edge ], [ 0, %107 ]
  %132 = getelementptr inbounds nuw i8, ptr %0, i64 112
  %133 = load ptr, ptr %132, align 8, !tbaa !8
  %134 = add i64 %131, 1
  store i64 %134, ptr %6, align 8, !tbaa !83
  %135 = getelementptr inbounds nuw i8, ptr %133, i64 %131
  %136 = load i8, ptr %135, align 1, !tbaa !36
  br label %_ZNK4YAML6Stream11GetNextByteEv.exit28

_ZNK4YAML6Stream11GetNextByteEv.exit28:           ; preds = %121, %._crit_edge.i24
  %.1.i26 = phi i8 [ 0, %121 ], [ %136, %._crit_edge.i24 ]
  %137 = getelementptr inbounds nuw i8, ptr %2, i64 3
  store i8 %.1.i26, ptr %137, align 1, !tbaa !36
  %138 = load ptr, ptr %0, align 8, !tbaa !57
  %139 = load ptr, ptr %138, align 8, !tbaa !22
  %140 = getelementptr i8, ptr %139, i64 -24
  %141 = load i64, ptr %140, align 8
  %142 = getelementptr inbounds i8, ptr %138, i64 %141
  %143 = getelementptr inbounds nuw i8, ptr %142, i64 32
  %144 = load i32, ptr %143, align 8, !tbaa !24
  %145 = icmp eq i32 %144, 0
  br i1 %145, label %.preheader, label %156

146:                                              ; preds = %.preheader
  %147 = getelementptr inbounds nuw i8, ptr %0, i64 32
  tail call void @_ZN4YAML21QueueUnicodeCodepointERSt5dequeIcSaIcEEm(ptr noundef nonnull align 8 dereferenceable(80) %147, i64 noundef %155)
  br label %156

.preheader:                                       ; preds = %_ZNK4YAML6Stream11GetNextByteEv.exit28, %.preheader
  %indvars.iv = phi i64 [ %indvars.iv.next, %.preheader ], [ 0, %_ZNK4YAML6Stream11GetNextByteEv.exit28 ]
  %.0729 = phi i64 [ %155, %.preheader ], [ 0, %_ZNK4YAML6Stream11GetNextByteEv.exit28 ]
  %148 = shl i64 %.0729, 8
  %149 = getelementptr inbounds nuw i32, ptr %._ZZNK4YAML6Stream13StreamInUtf32EvE7indexes, i64 %indvars.iv
  %150 = load i32, ptr %149, align 4, !tbaa !33
  %151 = sext i32 %150 to i64
  %152 = getelementptr inbounds [4 x i8], ptr %2, i64 0, i64 %151
  %153 = load i8, ptr %152, align 1, !tbaa !36
  %154 = zext i8 %153 to i64
  %155 = or disjoint i64 %148, %154
  %indvars.iv.next = add nuw nsw i64 %indvars.iv, 1
  %exitcond.not = icmp eq i64 %indvars.iv.next, 4
  br i1 %exitcond.not, label %146, label %.preheader, !llvm.loop !93

156:                                              ; preds = %_ZNK4YAML6Stream11GetNextByteEv.exit28, %146
  call void @llvm.lifetime.end.p0(i64 4, ptr nonnull %2) #16
  ret void
}